target datalayout = "e-m:e-p270:32:32-p271:32:32-p272:64:64-i64:64-i128:128-f80:128-n8:16:32:64-S128"
target triple = "x86_64-pc-linux-gnu"

@stdout = external global ptr, align 8
@.str.33 = private unnamed_addr constant [40 x i8] c"\0ASUNDIALS_WARNING: check_ans error=%g\0A\0A\00", align 1

; Function Attrs: nounwind uwtable
define internal i32 @check_ans(ptr noundef %0, double noundef %1, double noundef %2, double noundef %3) #0 {
  %5 = alloca ptr, align 8
  %6 = alloca double, align 8
  %7 = alloca double, align 8
  %8 = alloca double, align 8
  %9 = alloca i32, align 4
  %10 = alloca double, align 8
  %11 = alloca double, align 8
  %12 = alloca double, align 8
  store ptr %0, ptr %5, align 8, !tbaa !10
  store double %1, ptr %6, align 8, !tbaa !4
  store double %2, ptr %7, align 8, !tbaa !4
  store double %3, ptr %8, align 8, !tbaa !4
  call void @llvm.lifetime.start.p0(i64 4, ptr %9) #5
  store i32 0, ptr %9, align 4, !tbaa !14
  call void @llvm.lifetime.start.p0(i64 8, ptr %10) #5
  call void @llvm.lifetime.start.p0(i64 8, ptr %11) #5
  call void @llvm.lifetime.start.p0(i64 8, ptr %12) #5
  %13 = load double, ptr %6, align 8, !tbaa !4
  %14 = call double @atan(double noundef %13) #5, !tbaa !14
  store double %14, ptr %10, align 8, !tbaa !4
  %15 = load double, ptr %7, align 8, !tbaa !4
  %16 = load double, ptr %10, align 8, !tbaa !4
  %17 = call double @llvm.fabs.f64(double %16)
  %18 = load double, ptr %8, align 8, !tbaa !4
  %19 = call double @llvm.fmuladd.f64(double %15, double %17, double %18)
  %20 = fdiv double 1.000000e+00, %19
  store double %20, ptr %12, align 8, !tbaa !4
  %21 = load double, ptr %12, align 8, !tbaa !4
  %22 = load ptr, ptr %5, align 8, !tbaa !10
  %23 = call ptr @N_VGetArrayPointer(ptr noundef %22)
  %24 = getelementptr inbounds double, ptr %23, i64 0
  %25 = load double, ptr %24, align 8, !tbaa !4
  %26 = load double, ptr %10, align 8, !tbaa !4
  %27 = fsub double %25, %26
  %28 = call double @llvm.fabs.f64(double %27)
  %29 = fmul double %21, %28
  store double %29, ptr %11, align 8, !tbaa !4
  %30 = load double, ptr %11, align 8, !tbaa !4
  %31 = fcmp olt double %30, 1.000000e+00
  %32 = select i1 %31, i32 0, i32 1
  store i32 %32, ptr %9, align 4, !tbaa !14
  %33 = load i32, ptr %9, align 4, !tbaa !14
  %34 = icmp ne i32 %33, 0
  br i1 %34, label %35, label %39

35:                                               ; preds = %4
  %36 = load ptr, ptr @stdout, align 8, !tbaa !18
  %37 = load double, ptr %11, align 8, !tbaa !4
  %38 = call i32 (ptr, ptr, ...) @fprintf(ptr noundef %36, ptr noundef @.str.33, double noundef %37) #5
  br label %39

39:                                               ; preds = %35, %4
  %40 = load i32, ptr %9, align 4, !tbaa !14
  call void @llvm.lifetime.end.p0(i64 8, ptr %12) #5
  call void @llvm.lifetime.end.p0(i64 8, ptr %11) #5
  call void @llvm.lifetime.end.p0(i64 8, ptr %10) #5
  call void @llvm.lifetime.end.p0(i64 4, ptr %9) #5
  ret i32 %40
}